target datalayout = "e-m:e-p270:32:32-p271:32:32-p272:64:64-i64:64-i128:128-f80:128-n8:16:32:64-S128"
target triple = "x86_64-pc-linux-gnu"

%"class.lean::time_task" = type { %"class.std::__cxx11::basic_string", %"class.lean::optional", ptr }
%"class.std::__cxx11::basic_string" = type { %"struct.std::__cxx11::basic_string<char>::_Alloc_hider", i64, %union.anon }
%"struct.std::__cxx11::basic_string<char>::_Alloc_hider" = type { ptr }
%union.anon = type { i64, [8 x i8] }
%"class.lean::optional" = type { i8, %union.anon.0 }
%union.anon.0 = type { %"class.lean::xtimeit" }
%"class.lean::xtimeit" = type { %"class.std::chrono::duration", %"class.std::chrono::duration", %"class.std::chrono::time_point", %"class.std::function" }
%"class.std::chrono::duration" = type { double }
%"class.std::chrono::time_point" = type { %"class.std::chrono::duration.1" }
%"class.std::chrono::duration.1" = type { i64 }
%"class.std::function" = type { %"class.std::_Function_base", ptr }
%"class.std::_Function_base" = type { %"union.std::_Any_data", ptr }
%"union.std::_Any_data" = type { %"union.std::_Nocopy_types" }
%"union.std::_Nocopy_types" = type { { i64, i64 } }

@_ZN4leanL19g_current_time_taskE = internal thread_local(initialexec) global ptr null, align 8

; Function Attrs: mustprogress nounwind uwtable
define linkonce_odr hidden noundef double @_ZNKSt6chrono8durationIdSt5ratioILl1ELl1EEE5countEv(ptr noundef nonnull align 8 dereferenceable(8) %0) #3 comdat align 2 {
  %2 = alloca ptr, align 8
  store ptr %0, ptr %2, align 8, !tbaa !23
  %3 = load ptr, ptr %2, align 8
  %4 = getelementptr inbounds nuw %"class.std::chrono::duration", ptr %3, i32 0, i32 0
  %5 = load double, ptr %4, align 8, !tbaa !25
  ret double %5
}

; Function Attrs: mustprogress nounwind uwtable
define linkonce_odr hidden noundef nonnull align 8 dereferenceable(8) ptr @_ZNSt6chrono8durationIdSt5ratioILl1ELl1EEEpLERKS3_(ptr noundef nonnull align 8 dereferenceable(8) %0, ptr noundef nonnull align 8 dereferenceable(8) %1) #3 comdat align 2 {
  %3 = alloca ptr, align 8
  %4 = alloca ptr, align 8
  store ptr %0, ptr %3, align 8, !tbaa !23
  store ptr %1, ptr %4, align 8, !tbaa !23
  %5 = load ptr, ptr %3, align 8
  %6 = load ptr, ptr %4, align 8, !tbaa !23
  %7 = call noundef double @_ZNKSt6chrono8durationIdSt5ratioILl1ELl1EEE5countEv(ptr noundef nonnull align 8 dereferenceable(8) %6)
  %8 = getelementptr inbounds nuw %"class.std::chrono::duration", ptr %5, i32 0, i32 0
  %9 = load double, ptr %8, align 8, !tbaa !25
  %10 = fadd double %9, %7
  store double %10, ptr %8, align 8, !tbaa !25
  ret ptr %5
}

; Function Attrs: mustprogress uwtable
define linkonce_odr hidden void @_ZN4lean7xtimeit16exclude_durationENSt6chrono8durationIdSt5ratioILl1ELl1EEEE(ptr noundef nonnull align 8 dereferenceable(56) %0, double %1) #0 comdat align 2 {
  %3 = alloca %"class.std::chrono::duration", align 8
  %4 = alloca ptr, align 8
  %5 = getelementptr inbounds nuw %"class.std::chrono::duration", ptr %3, i32 0, i32 0
  store double %1, ptr %5, align 8
  store ptr %0, ptr %4, align 8, !tbaa !63
  %6 = load ptr, ptr %4, align 8
  %7 = getelementptr inbounds nuw %"class.lean::xtimeit", ptr %6, i32 0, i32 1
  %8 = call noundef nonnull align 8 dereferenceable(8) ptr @_ZNSt6chrono8durationIdSt5ratioILl1ELl1EEEpLERKS3_(ptr noundef nonnull align 8 dereferenceable(8) %7, ptr noundef nonnull align 8 dereferenceable(8) %3)
  ret void
}

; Function Attrs: mustprogress nounwind uwtable
define linkonce_odr hidden noundef ptr @_ZN4lean8optionalINS_7xtimeitEEptEv(ptr noundef nonnull align 8 dereferenceable(64) %0) #3 comdat align 2 {
  %2 = alloca ptr, align 8
  store ptr %0, ptr %2, align 8, !tbaa !57
  %3 = load ptr, ptr %2, align 8
  %4 = getelementptr inbounds nuw %"class.lean::optional", ptr %3, i32 0, i32 1
  ret ptr %4
}

; Function Attrs: mustprogress uwtable
define linkonce_odr hidden void @_ZN4lean9time_task16exclude_durationENSt6chrono8durationIdSt5ratioILl1ELl1EEEE(ptr noundef nonnull align 8 dereferenceable(104) %0, double %1) #0 comdat align 2 {
  %3 = alloca %"class.std::chrono::duration", align 8
  %4 = alloca ptr, align 8
  %5 = alloca %"class.std::chrono::duration", align 8
  %6 = getelementptr inbounds nuw %"class.std::chrono::duration", ptr %3, i32 0, i32 0
  store double %1, ptr %6, align 8
  store ptr %0, ptr %4, align 8, !tbaa !3
  %7 = load ptr, ptr %4, align 8
  %8 = getelementptr inbounds nuw %"class.lean::time_task", ptr %7, i32 0, i32 1
  %9 = call noundef ptr @_ZN4lean8optionalINS_7xtimeitEEptEv(ptr noundef nonnull align 8 dereferenceable(64) %8)
  call void @llvm.memcpy.p0.p0.i64(ptr align 8 %5, ptr align 8 %3, i64 8, i1 false), !tbaa.struct !28
  %10 = getelementptr inbounds nuw %"class.std::chrono::duration", ptr %5, i32 0, i32 0
  %11 = load double, ptr %10, align 8
  call void @_ZN4lean7xtimeit16exclude_durationENSt6chrono8durationIdSt5ratioILl1ELl1EEEE(ptr noundef nonnull align 8 dereferenceable(56) %9, double %11)
  ret void
}

; Function Attrs: mustprogress uwtable
define void @_ZN4lean40exclude_profiling_time_from_current_taskENSt6chrono8durationIdSt5ratioILl1ELl1EEEE(double %0) #0 {
  %2 = alloca %"class.std::chrono::duration", align 8
  %3 = alloca %"class.std::chrono::duration", align 8
  %4 = getelementptr inbounds nuw %"class.std::chrono::duration", ptr %2, i32 0, i32 0
  store double %0, ptr %4, align 8
  %5 = call align 8 ptr @llvm.threadlocal.address.p0(ptr align 8 @_ZN4leanL19g_current_time_taskE)
  %6 = load ptr, ptr %5, align 8, !tbaa !3
  %7 = icmp ne ptr %6, null
  br i1 %7, label %8, label %13

8:                                                ; preds = %1
  %9 = call align 8 ptr @llvm.threadlocal.address.p0(ptr align 8 @_ZN4leanL19g_current_time_taskE)
  %10 = load ptr, ptr %9, align 8, !tbaa !3
  call void @llvm.memcpy.p0.p0.i64(ptr align 8 %3, ptr align 8 %2, i64 8, i1 false), !tbaa.struct !28
  %11 = getelementptr inbounds nuw %"class.std::chrono::duration", ptr %3, i32 0, i32 0
  %12 = load double, ptr %11, align 8
  call void @_ZN4lean9time_task16exclude_durationENSt6chrono8durationIdSt5ratioILl1ELl1EEEE(ptr noundef nonnull align 8 dereferenceable(104) %10, double %12)
  br label %13

13:                                               ; preds = %8, %1
  ret void
}