; Function Attrs: mustprogress nofree norecurse nosync nounwind willreturn memory(readwrite, inaccessiblemem: none) uwtable
define void @_ZN4lean40exclude_profiling_time_from_current_taskENSt6chrono8durationIdSt5ratioILl1ELl1EEEE(double %0) local_unnamed_addr #4 {
  %2 = tail call align 8 ptr @llvm.threadlocal.address.p0(ptr align 8 @_ZN4leanL19g_current_time_taskE)
  %3 = load ptr, ptr %2, align 8, !tbaa !3
  %.not = icmp eq ptr %3, null
  br i1 %.not, label %8, label %4

4:                                                ; preds = %1
  %5 = getelementptr inbounds nuw i8, ptr %3, i64 48
  %6 = load double, ptr %5, align 8, !tbaa !18
  %7 = fadd double %0, %6
  store double %7, ptr %5, align 8, !tbaa !18
  br label %8

8:                                                ; preds = %4, %1
  ret void
}